; Function Attrs: mustprogress nofree norecurse nosync nounwind willreturn memory(read, inaccessiblemem: none) uwtable
define dso_local noundef nonnull align 8 dereferenceable(24) ptr @_ZNK25cmInstallCommandArguments17GetConfigurationsB5cxx11Ev(ptr noundef nonnull readonly align 8 dereferenceable(440) %0) local_unnamed_addr #6 align 2 {
  br label %tailrecurse

tailrecurse:                                      ; preds = %7, %1
  %.tr = phi ptr [ %0, %1 ], [ %9, %7 ]
  %2 = getelementptr inbounds nuw i8, ptr %.tr, i64 272
  %3 = load ptr, ptr %2, align 8, !tbaa !49
  %4 = getelementptr inbounds nuw i8, ptr %.tr, i64 280
  %5 = load ptr, ptr %4, align 8, !tbaa !49
  %6 = icmp eq ptr %3, %5
  br i1 %6, label %7, label %10

7:                                                ; preds = %tailrecurse
  %8 = getelementptr inbounds nuw i8, ptr %.tr, i64 400
  %9 = load ptr, ptr %8, align 8, !tbaa !41
  %.not = icmp eq ptr %9, null
  br i1 %.not, label %10, label %tailrecurse

10:                                               ; preds = %7, %tailrecurse
  %11 = getelementptr inbounds nuw i8, ptr %.tr, i64 272
  ret ptr %11
}